target datalayout = "e-m:e-p270:32:32-p271:32:32-p272:64:64-i64:64-i128:128-f80:128-n8:16:32:64-S128"
target triple = "x86_64-pc-linux-gnu"

%struct.SlruCtlData = type { ptr, i16, i8, i32, ptr, [64 x i8] }
%struct.FileTag = type { i16, i16, %struct.RelFileLocator, i64 }
%struct.RelFileLocator = type { i32, i32, i32 }

@.str.2 = private unnamed_addr constant [7 x i8] c"slru.c\00", align 1
@.str.5 = private unnamed_addr constant [11 x i8] c"%s/%015llX\00", align 1
@.str.6 = private unnamed_addr constant [8 x i8] c"%s/%04X\00", align 1
@.str.18 = private unnamed_addr constant [19 x i8] c"removing file \22%s\22\00", align 1
@__func__.SlruInternalDeleteSegment = private unnamed_addr constant [26 x i8] c"SlruInternalDeleteSegment\00", align 1

; Function Attrs: inlinehint nounwind uwtable
define internal i32 @SlruFileName(ptr noundef %0, ptr noundef %1, i64 noundef %2) #4 {
  %4 = alloca i32, align 4
  %5 = alloca ptr, align 8
  %6 = alloca ptr, align 8
  %7 = alloca i64, align 8
  store ptr %0, ptr %5, align 8
  store ptr %1, ptr %6, align 8
  store i64 %2, ptr %7, align 8
  %8 = load ptr, ptr %5, align 8
  %9 = getelementptr inbounds nuw %struct.SlruCtlData, ptr %8, i32 0, i32 2
  %10 = load i8, ptr %9, align 2, !range !4, !noundef !5
  %11 = trunc i8 %10 to i1
  br i1 %11, label %12, label %19

12:                                               ; preds = %3
  %13 = load ptr, ptr %6, align 8
  %14 = load ptr, ptr %5, align 8
  %15 = getelementptr inbounds nuw %struct.SlruCtlData, ptr %14, i32 0, i32 5
  %16 = getelementptr inbounds [64 x i8], ptr %15, i64 0, i64 0
  %17 = load i64, ptr %7, align 8
  %18 = call i32 (ptr, i64, ptr, ...) @pg_snprintf(ptr noundef %13, i64 noundef 1024, ptr noundef @.str.5, ptr noundef %16, i64 noundef %17)
  store i32 %18, ptr %4, align 4
  br label %27

19:                                               ; preds = %3
  %20 = load ptr, ptr %6, align 8
  %21 = load ptr, ptr %5, align 8
  %22 = getelementptr inbounds nuw %struct.SlruCtlData, ptr %21, i32 0, i32 5
  %23 = getelementptr inbounds [64 x i8], ptr %22, i64 0, i64 0
  %24 = load i64, ptr %7, align 8
  %25 = trunc i64 %24 to i32
  %26 = call i32 (ptr, i64, ptr, ...) @pg_snprintf(ptr noundef %20, i64 noundef 1024, ptr noundef @.str.6, ptr noundef %23, i32 noundef %25)
  store i32 %26, ptr %4, align 4
  br label %27

27:                                               ; preds = %19, %12
  %28 = load i32, ptr %4, align 4
  ret i32 %28
}

; Function Attrs: nounwind uwtable
define internal void @SlruInternalDeleteSegment(ptr noundef %0, i64 noundef %1) #0 {
  %3 = alloca ptr, align 8
  %4 = alloca i64, align 8
  %5 = alloca [1024 x i8], align 16
  %6 = alloca %struct.FileTag, align 8
  store ptr %0, ptr %3, align 8
  store i64 %1, ptr %4, align 8
  call void @llvm.lifetime.start.p0(i64 1024, ptr %5) #9
  %7 = load ptr, ptr %3, align 8
  %8 = getelementptr inbounds nuw %struct.SlruCtlData, ptr %7, i32 0, i32 3
  %9 = load i32, ptr %8, align 4
  %10 = icmp ne i32 %9, 5
  br i1 %10, label %11, label %20

11:                                               ; preds = %2
  call void @llvm.lifetime.start.p0(i64 24, ptr %6) #9
  call void @llvm.memset.p0.i64(ptr align 8 %6, i8 0, i64 24, i1 false)
  %12 = load ptr, ptr %3, align 8
  %13 = getelementptr inbounds nuw %struct.SlruCtlData, ptr %12, i32 0, i32 3
  %14 = load i32, ptr %13, align 4
  %15 = trunc i32 %14 to i16
  %16 = getelementptr inbounds nuw %struct.FileTag, ptr %6, i32 0, i32 0
  store i16 %15, ptr %16, align 8
  %17 = load i64, ptr %4, align 8
  %18 = getelementptr inbounds nuw %struct.FileTag, ptr %6, i32 0, i32 3
  store i64 %17, ptr %18, align 8
  %19 = call zeroext i1 @RegisterSyncRequest(ptr noundef %6, i32 noundef 2, i1 noundef zeroext true)
  call void @llvm.lifetime.end.p0(i64 24, ptr %6) #9
  br label %20

20:                                               ; preds = %11, %2
  %21 = load ptr, ptr %3, align 8
  %22 = getelementptr inbounds [1024 x i8], ptr %5, i64 0, i64 0
  %23 = load i64, ptr %4, align 8
  %24 = call i32 @SlruFileName(ptr noundef %21, ptr noundef %22, i64 noundef %23)
  br label %25

25:                                               ; preds = %20
  br i1 false, label %26, label %28

26:                                               ; preds = %25
  %27 = call zeroext i1 @errstart_cold(i32 noundef 13, ptr noundef null) #11
  br i1 %27, label %30, label %33

28:                                               ; preds = %25
  %29 = call zeroext i1 @errstart(i32 noundef 13, ptr noundef null)
  br i1 %29, label %30, label %33

30:                                               ; preds = %28, %26
  %31 = getelementptr inbounds [1024 x i8], ptr %5, i64 0, i64 0
  %32 = call i32 (ptr, ...) @errmsg_internal(ptr noundef @.str.18, ptr noundef %31)
  call void @errfinish(ptr noundef @.str.2, i32 noundef 1518, ptr noundef @__func__.SlruInternalDeleteSegment)
  br label %33

33:                                               ; preds = %30, %28, %26
  br label %34

34:                                               ; preds = %33
  br label %35

35:                                               ; preds = %34
  %36 = getelementptr inbounds [1024 x i8], ptr %5, i64 0, i64 0
  %37 = call i32 @unlink(ptr noundef %36) #9
  call void @llvm.lifetime.end.p0(i64 1024, ptr %5) #9
  ret void
}