; Function Attrs: nounwind uwtable
define internal fastcc void @SlruInternalDeleteSegment(ptr noundef %0, i64 noundef %1) unnamed_addr #3 {
  %3 = alloca [1024 x i8], align 16
  %4 = alloca %struct.FileTag, align 8
  call void @llvm.lifetime.start.p0(i64 1024, ptr nonnull %3) #15
  %5 = getelementptr inbounds nuw i8, ptr %0, i64 12
  %6 = load i32, ptr %5, align 4
  %.not = icmp eq i32 %6, 5
  br i1 %.not, label %11, label %7

7:                                                ; preds = %2
  call void @llvm.lifetime.start.p0(i64 24, ptr nonnull %4) #15
  call void @llvm.memset.p0.i64(ptr noundef nonnull align 8 dereferenceable(24) %4, i8 0, i64 16, i1 false)
  %8 = trunc i32 %6 to i16
  store i16 %8, ptr %4, align 8
  %9 = getelementptr inbounds nuw i8, ptr %4, i64 16
  store i64 %1, ptr %9, align 8
  %10 = call zeroext i1 @RegisterSyncRequest(ptr noundef nonnull %4, i32 noundef 2, i1 noundef zeroext true) #15
  call void @llvm.lifetime.end.p0(i64 24, ptr nonnull %4) #15
  br label %11

11:                                               ; preds = %7, %2
  %12 = getelementptr inbounds nuw i8, ptr %0, i64 10
  %13 = load i8, ptr %12, align 2, !range !4, !noundef !5
  %14 = trunc nuw i8 %13 to i1
  %15 = getelementptr inbounds nuw i8, ptr %0, i64 24
  br i1 %14, label %16, label %18

16:                                               ; preds = %11
  %17 = call i32 (ptr, i64, ptr, ...) @pg_snprintf(ptr noundef nonnull %3, i64 noundef 1024, ptr noundef nonnull @.str.5, ptr noundef nonnull %15, i64 noundef %1) #15
  br label %SlruFileName.exit

18:                                               ; preds = %11
  %19 = trunc i64 %1 to i32
  %20 = call i32 (ptr, i64, ptr, ...) @pg_snprintf(ptr noundef nonnull %3, i64 noundef 1024, ptr noundef nonnull @.str.6, ptr noundef nonnull %15, i32 noundef %19) #15
  br label %SlruFileName.exit

SlruFileName.exit:                                ; preds = %16, %18
  %21 = call zeroext i1 @errstart(i32 noundef 13, ptr noundef null) #15
  br i1 %21, label %22, label %24

22:                                               ; preds = %SlruFileName.exit
  %23 = call i32 (ptr, ...) @errmsg_internal(ptr noundef nonnull @.str.18, ptr noundef nonnull %3) #15
  call void @errfinish(ptr noundef nonnull @.str.2, i32 noundef 1518, ptr noundef nonnull @__func__.SlruInternalDeleteSegment) #15
  br label %24

24:                                               ; preds = %22, %SlruFileName.exit
  %25 = call i32 @unlink(ptr noundef nonnull %3) #15
  call void @llvm.lifetime.end.p0(i64 1024, ptr nonnull %3) #15
  ret void
}